; Function Attrs: nounwind uwtable
define dso_local i32 @auth_g_verify(ptr noundef %0, ptr noundef %1) local_unnamed_addr #2 {
  %.not = icmp eq ptr %0, null
  br i1 %.not, label %17, label %3

3:                                                ; preds = %2
  %4 = tail call i32 @pthread_rwlock_rdlock(ptr noundef nonnull @context_lock) #12
  %.not13 = icmp eq i32 %4, 0
  br i1 %.not13, label %7, label %5

5:                                                ; preds = %3
  %6 = tail call ptr @__errno_location() #13
  store i32 %4, ptr %6, align 4
  tail call void (ptr, ...) @fatal_abort(ptr noundef nonnull @.str.19, ptr noundef nonnull @__func__.auth_g_verify) #11
  unreachable

7:                                                ; preds = %3
  %8 = load ptr, ptr @ops, align 8
  %9 = load i32, ptr %0, align 4
  %10 = sext i32 %9 to i64
  %11 = getelementptr inbounds %struct.auth_ops_t, ptr %8, i64 %10, i32 5
  %12 = load ptr, ptr %11, align 8
  %13 = tail call i32 %12(ptr noundef nonnull %0, ptr noundef %1) #12
  %14 = tail call i32 @pthread_rwlock_unlock(ptr noundef nonnull @context_lock) #12
  %.not14 = icmp eq i32 %14, 0
  br i1 %.not14, label %17, label %15

15:                                               ; preds = %7
  %16 = tail call ptr @__errno_location() #13
  store i32 %14, ptr %16, align 4
  tail call void (ptr, ...) @fatal_abort(ptr noundef nonnull @.str.17, ptr noundef nonnull @__func__.auth_g_verify) #11
  unreachable

17:                                               ; preds = %7, %2
  %.0 = phi i32 [ -1, %2 ], [ %13, %7 ]
  ret i32 %.0
}